; Function Attrs: nounwind uwtable
define internal fastcc i32 @http_write_header(ptr noundef %0, ptr noundef nonnull %1, i64 noundef %2) unnamed_addr #0 {
  tail call void @Curl_debug(ptr noundef %0, i32 noundef 1, ptr noundef nonnull %1, i64 noundef %2) #11
  %4 = getelementptr inbounds nuw i8, ptr %0, i64 308
  %5 = load i32, ptr %4, align 4, !tbaa !123
  %.off = add i32 %5, -100
  %6 = icmp ult i32 %.off, 100
  %7 = select i1 %6, i32 36, i32 4
  %8 = tail call i32 @Curl_client_write(ptr noundef %0, i32 noundef %7, ptr noundef nonnull %1, i64 noundef %2) #11
  %.not = icmp eq i32 %8, 0
  br i1 %.not, label %9, label %41

9:                                                ; preds = %3
  %10 = icmp ult i64 %2, 307200
  br i1 %10, label %11, label %27

11:                                               ; preds = %9
  %12 = trunc nuw nsw i64 %2 to i32
  %13 = getelementptr inbounds nuw i8, ptr %0, i64 4968
  %14 = load i32, ptr %13, align 8, !tbaa !214
  %15 = add i32 %14, %12
  store i32 %15, ptr %13, align 8, !tbaa !214
  %16 = getelementptr inbounds nuw i8, ptr %0, i64 284
  %17 = load i32, ptr %16, align 4, !tbaa !215
  %18 = add i32 %17, %12
  store i32 %18, ptr %16, align 4, !tbaa !215
  %19 = getelementptr inbounds nuw i8, ptr %0, i64 280
  %20 = load i32, ptr %19, align 8, !tbaa !111
  %21 = add i32 %20, %12
  store i32 %21, ptr %19, align 8, !tbaa !111
  %22 = icmp ugt i32 %18, 307200
  br i1 %22, label %.thread30.i, label %24

.thread30.i:                                      ; preds = %11
  %23 = zext i32 %18 to i64
  br label %Curl_bump_headersize.exit

24:                                               ; preds = %11
  %25 = icmp ugt i32 %15, 6144000
  %26 = zext i32 %15 to i64
  br i1 %25, label %select.unfold.i, label %32

27:                                               ; preds = %9
  %28 = getelementptr inbounds nuw i8, ptr %0, i64 284
  %29 = load i32, ptr %28, align 4, !tbaa !215
  %30 = zext i32 %29 to i64
  %31 = add i64 %2, %30
  br label %select.unfold.i

select.unfold.i:                                  ; preds = %27, %24
  %.021.i = phi i64 [ %31, %27 ], [ %26, %24 ]
  %.0.i = phi i32 [ 307200, %27 ], [ 6144000, %24 ]
  %.not.i = icmp eq i64 %.021.i, 0
  br i1 %.not.i, label %32, label %Curl_bump_headersize.exit

Curl_bump_headersize.exit:                        ; preds = %.thread30.i, %select.unfold.i
  %.035.i = phi i32 [ 307200, %.thread30.i ], [ %.0.i, %select.unfold.i ]
  %.02134.i = phi i64 [ %23, %.thread30.i ], [ %.021.i, %select.unfold.i ]
  tail call void (ptr, ptr, ...) @Curl_failf(ptr noundef nonnull %0, ptr noundef nonnull @.str.109, i64 noundef %.02134.i, i32 noundef %.035.i) #11
  br label %41

32:                                               ; preds = %select.unfold.i, %24
  %33 = load i32, ptr %4, align 4, !tbaa !123
  %34 = add i32 %33, -100
  %or.cond = icmp ult i32 %34, 100
  br i1 %or.cond, label %35, label %38

35:                                               ; preds = %32
  %36 = getelementptr inbounds nuw i8, ptr %0, i64 280
  %37 = load i32, ptr %36, align 8, !tbaa !111
  br label %38

38:                                               ; preds = %32, %35
  %39 = phi i32 [ %37, %35 ], [ 0, %32 ]
  %40 = getelementptr inbounds nuw i8, ptr %0, i64 288
  store i32 %39, ptr %40, align 8, !tbaa !112
  br label %41

41:                                               ; preds = %Curl_bump_headersize.exit, %3, %38
  %.0 = phi i32 [ 0, %38 ], [ %8, %3 ], [ 56, %Curl_bump_headersize.exit ]
  ret i32 %.0
}